target datalayout = "e-m:e-p270:32:32-p271:32:32-p272:64:64-i64:64-i128:128-f80:128-n8:16:32:64-S128"
target triple = "x86_64-pc-linux-gnu"

%struct.RelOptInfo = type { i32, i32, ptr, double, i8, i8, i8, ptr, ptr, ptr, ptr, ptr, ptr, ptr, ptr, ptr, ptr, i32, i32, i32, i16, i16, ptr, ptr, ptr, ptr, ptr, ptr, ptr, ptr, i32, double, double, ptr, ptr, ptr, i32, i32, i32, i32, i8, ptr, ptr, ptr, ptr, ptr, %struct.QualCost, i32, ptr, i8, i8, ptr, ptr, ptr, ptr, i32, ptr, i8, ptr, ptr, ptr, ptr, ptr, ptr }
%struct.QualCost = type { double, double }
%struct.RestrictInfo = type { i32, ptr, i8, i8, i8, i8, i8, i8, i32, i32, i32, ptr, ptr, ptr, ptr, ptr, ptr, ptr, i32, ptr, %struct.QualCost, double, double, ptr, ptr, ptr, ptr, ptr, ptr, i8, i32, double, double, double, double, i32, i32 }
%struct.PlannerInfo = type { i32, ptr, ptr, i32, ptr, ptr, ptr, ptr, i32, ptr, ptr, ptr, ptr, ptr, ptr, ptr, ptr, i32, ptr, ptr, ptr, ptr, ptr, i8, ptr, ptr, ptr, ptr, ptr, i32, ptr, ptr, ptr, ptr, ptr, ptr, ptr, i32, ptr, ptr, ptr, i32, ptr, ptr, ptr, ptr, ptr, ptr, [8 x ptr], [8 x ptr], ptr, ptr, ptr, ptr, ptr, ptr, ptr, double, double, double, i32, i8, i8, i8, i8, i8, i8, i8, i32, ptr, ptr, i32, i8, i8, i32, ptr, ptr, ptr, ptr, ptr, ptr, i8, ptr }

; Function Attrs: nounwind uwtable
define dso_local void @add_join_clause_to_rels(ptr noundef %0, ptr noundef %1, ptr noundef %2) #0 {
  %4 = alloca ptr, align 8
  %5 = alloca ptr, align 8
  %6 = alloca ptr, align 8
  %7 = alloca i32, align 4
  %8 = alloca i32, align 4
  %9 = alloca i32, align 4
  %10 = alloca i32, align 4
  %11 = alloca ptr, align 8
  store ptr %0, ptr %4, align 8
  store ptr %1, ptr %5, align 8
  store ptr %2, ptr %6, align 8
  call void @llvm.lifetime.start.p0(i64 4, ptr %7) #5
  %12 = load ptr, ptr %4, align 8
  %13 = load ptr, ptr %5, align 8
  %14 = call zeroext i1 @restriction_is_always_true(ptr noundef %12, ptr noundef %13)
  br i1 %14, label %15, label %16

15:                                               ; preds = %3
  store i32 1, ptr %8, align 4
  br label %86

16:                                               ; preds = %3
  %17 = load ptr, ptr %4, align 8
  %18 = load ptr, ptr %5, align 8
  %19 = call zeroext i1 @restriction_is_always_false(ptr noundef %17, ptr noundef %18)
  br i1 %19, label %20, label %61

20:                                               ; preds = %16
  call void @llvm.lifetime.start.p0(i64 4, ptr %9) #5
  %21 = load ptr, ptr %5, align 8
  %22 = getelementptr inbounds nuw %struct.RestrictInfo, ptr %21, i32 0, i32 18
  %23 = load i32, ptr %22, align 8
  store i32 %23, ptr %9, align 4
  call void @llvm.lifetime.start.p0(i64 4, ptr %10) #5
  %24 = load ptr, ptr %4, align 8
  %25 = getelementptr inbounds nuw %struct.PlannerInfo, ptr %24, i32 0, i32 29
  %26 = load i32, ptr %25, align 8
  store i32 %26, ptr %10, align 4
  %27 = load ptr, ptr %4, align 8
  %28 = call ptr @makeBoolConst(i1 noundef zeroext false, i1 noundef zeroext false)
  %29 = load ptr, ptr %5, align 8
  %30 = getelementptr inbounds nuw %struct.RestrictInfo, ptr %29, i32 0, i32 2
  %31 = load i8, ptr %30, align 8, !range !6, !noundef !7
  %32 = trunc i8 %31 to i1
  %33 = load ptr, ptr %5, align 8
  %34 = getelementptr inbounds nuw %struct.RestrictInfo, ptr %33, i32 0, i32 5
  %35 = load i8, ptr %34, align 1, !range !6, !noundef !7
  %36 = trunc i8 %35 to i1
  %37 = load ptr, ptr %5, align 8
  %38 = getelementptr inbounds nuw %struct.RestrictInfo, ptr %37, i32 0, i32 6
  %39 = load i8, ptr %38, align 4, !range !6, !noundef !7
  %40 = trunc i8 %39 to i1
  %41 = load ptr, ptr %5, align 8
  %42 = getelementptr inbounds nuw %struct.RestrictInfo, ptr %41, i32 0, i32 4
  %43 = load i8, ptr %42, align 2, !range !6, !noundef !7
  %44 = trunc i8 %43 to i1
  %45 = load ptr, ptr %5, align 8
  %46 = getelementptr inbounds nuw %struct.RestrictInfo, ptr %45, i32 0, i32 12
  %47 = load ptr, ptr %46, align 8
  %48 = load ptr, ptr %5, align 8
  %49 = getelementptr inbounds nuw %struct.RestrictInfo, ptr %48, i32 0, i32 13
  %50 = load ptr, ptr %49, align 8
  %51 = load ptr, ptr %5, align 8
  %52 = getelementptr inbounds nuw %struct.RestrictInfo, ptr %51, i32 0, i32 14
  %53 = load ptr, ptr %52, align 8
  %54 = call ptr @make_restrictinfo(ptr noundef %27, ptr noundef %28, i1 noundef zeroext %32, i1 noundef zeroext %36, i1 noundef zeroext %40, i1 noundef zeroext %44, i32 noundef 0, ptr noundef %47, ptr noundef %50, ptr noundef %53)
  store ptr %54, ptr %5, align 8
  %55 = load i32, ptr %9, align 4
  %56 = load ptr, ptr %5, align 8
  %57 = getelementptr inbounds nuw %struct.RestrictInfo, ptr %56, i32 0, i32 18
  store i32 %55, ptr %57, align 8
  %58 = load i32, ptr %10, align 4
  %59 = load ptr, ptr %4, align 8
  %60 = getelementptr inbounds nuw %struct.PlannerInfo, ptr %59, i32 0, i32 29
  store i32 %58, ptr %60, align 8
  call void @llvm.lifetime.end.p0(i64 4, ptr %10) #5
  call void @llvm.lifetime.end.p0(i64 4, ptr %9) #5
  br label %61

61:                                               ; preds = %20, %16
  store i32 -1, ptr %7, align 4
  br label %62

62:                                               ; preds = %84, %82, %61
  %63 = load ptr, ptr %6, align 8
  %64 = load i32, ptr %7, align 4
  %65 = call i32 @bms_next_member(ptr noundef %63, i32 noundef %64)
  store i32 %65, ptr %7, align 4
  %66 = icmp sge i32 %65, 0
  br i1 %66, label %67, label %85

67:                                               ; preds = %62
  call void @llvm.lifetime.start.p0(i64 8, ptr %11) #5
  %68 = load ptr, ptr %4, align 8
  %69 = load i32, ptr %7, align 4
  %70 = call ptr @find_base_rel_ignore_join(ptr noundef %68, i32 noundef %69)
  store ptr %70, ptr %11, align 8
  %71 = load ptr, ptr %11, align 8
  %72 = icmp eq ptr %71, null
  br i1 %72, label %73, label %74

73:                                               ; preds = %67
  store i32 2, ptr %8, align 4
  br label %82, !llvm.loop !8

74:                                               ; preds = %67
  %75 = load ptr, ptr %11, align 8
  %76 = getelementptr inbounds nuw %struct.RelOptInfo, ptr %75, i32 0, i32 48
  %77 = load ptr, ptr %76, align 8
  %78 = load ptr, ptr %5, align 8
  %79 = call ptr @lappend(ptr noundef %77, ptr noundef %78)
  %80 = load ptr, ptr %11, align 8
  %81 = getelementptr inbounds nuw %struct.RelOptInfo, ptr %80, i32 0, i32 48
  store ptr %79, ptr %81, align 8
  store i32 0, ptr %8, align 4
  br label %82

82:                                               ; preds = %74, %73
  call void @llvm.lifetime.end.p0(i64 8, ptr %11) #5
  %83 = load i32, ptr %8, align 4
  switch i32 %83, label %89 [
    i32 0, label %84
    i32 2, label %62
  ]

84:                                               ; preds = %82
  br label %62, !llvm.loop !8

85:                                               ; preds = %62
  store i32 0, ptr %8, align 4
  br label %86

86:                                               ; preds = %85, %15
  call void @llvm.lifetime.end.p0(i64 4, ptr %7) #5
  %87 = load i32, ptr %8, align 4
  switch i32 %87, label %89 [
    i32 0, label %88
    i32 1, label %88
  ]

88:                                               ; preds = %86, %86
  ret void

89:                                               ; preds = %86, %82
  unreachable
}