; Function Attrs: nounwind uwtable
define dso_local void @add_join_clause_to_rels(ptr noundef %0, ptr noundef %1, ptr noundef %2) local_unnamed_addr #0 {
  %4 = tail call zeroext i1 @restriction_is_always_true(ptr noundef %0, ptr noundef %1) #2
  br i1 %4, label %.loopexit, label %5

5:                                                ; preds = %3
  %6 = tail call zeroext i1 @restriction_is_always_false(ptr noundef %0, ptr noundef %1) #2
  br i1 %6, label %7, label %33

7:                                                ; preds = %5
  %8 = getelementptr inbounds nuw i8, ptr %1, i64 96
  %9 = load i32, ptr %8, align 8
  %10 = getelementptr inbounds nuw i8, ptr %0, i64 232
  %11 = load i32, ptr %10, align 8
  %12 = tail call ptr @makeBoolConst(i1 noundef zeroext false, i1 noundef zeroext false) #2
  %13 = getelementptr inbounds nuw i8, ptr %1, i64 16
  %14 = load i8, ptr %13, align 8, !range !4, !noundef !5
  %15 = trunc nuw i8 %14 to i1
  %16 = getelementptr inbounds nuw i8, ptr %1, i64 19
  %17 = load i8, ptr %16, align 1, !range !4, !noundef !5
  %18 = trunc nuw i8 %17 to i1
  %19 = getelementptr inbounds nuw i8, ptr %1, i64 20
  %20 = load i8, ptr %19, align 4, !range !4, !noundef !5
  %21 = trunc nuw i8 %20 to i1
  %22 = getelementptr inbounds nuw i8, ptr %1, i64 18
  %23 = load i8, ptr %22, align 2, !range !4, !noundef !5
  %24 = trunc nuw i8 %23 to i1
  %25 = getelementptr inbounds nuw i8, ptr %1, i64 48
  %26 = load ptr, ptr %25, align 8
  %27 = getelementptr inbounds nuw i8, ptr %1, i64 56
  %28 = load ptr, ptr %27, align 8
  %29 = getelementptr inbounds nuw i8, ptr %1, i64 64
  %30 = load ptr, ptr %29, align 8
  %31 = tail call ptr @make_restrictinfo(ptr noundef %0, ptr noundef %12, i1 noundef zeroext %15, i1 noundef zeroext %18, i1 noundef zeroext %21, i1 noundef zeroext %24, i32 noundef 0, ptr noundef %26, ptr noundef %28, ptr noundef %30) #2
  %32 = getelementptr inbounds nuw i8, ptr %31, i64 96
  store i32 %9, ptr %32, align 8
  store i32 %11, ptr %10, align 8
  br label %33

33:                                               ; preds = %7, %5
  %.0 = phi ptr [ %31, %7 ], [ %1, %5 ]
  %34 = tail call i32 @bms_next_member(ptr noundef %2, i32 noundef -1) #2
  %35 = icmp sgt i32 %34, -1
  br i1 %35, label %.lr.ph, label %.loopexit

.lr.ph:                                           ; preds = %33, %43
  %36 = phi i32 [ %44, %43 ], [ %34, %33 ]
  %37 = tail call ptr @find_base_rel_ignore_join(ptr noundef %0, i32 noundef %36) #2
  %38 = icmp eq ptr %37, null
  br i1 %38, label %43, label %39, !llvm.loop !6

39:                                               ; preds = %.lr.ph
  %40 = getelementptr inbounds nuw i8, ptr %37, i64 328
  %41 = load ptr, ptr %40, align 8
  %42 = tail call ptr @lappend(ptr noundef %41, ptr noundef %.0) #2
  store ptr %42, ptr %40, align 8
  br label %43

43:                                               ; preds = %.lr.ph, %39
  %44 = tail call i32 @bms_next_member(ptr noundef %2, i32 noundef %36) #2
  %45 = icmp sgt i32 %44, -1
  br i1 %45, label %.lr.ph, label %.loopexit

.loopexit:                                        ; preds = %43, %33, %3
  ret void
}